target datalayout = "e-m:e-p270:32:32-p271:32:32-p272:64:64-i64:64-i128:128-f80:128-n8:16:32:64-S128"
target triple = "x86_64-pc-linux-gnu"

%"class.Ipopt::PenaltyLSAcceptor" = type { %"class.Ipopt::BacktrackingLSAcceptor.base", double, double, double, double, i32, double, i32, double, double, double, double, %"class.Ipopt::SmartPtr.3", %"class.Ipopt::SmartPtr.3", double, double, double, double, double, double, double, %"class.Ipopt::SmartPtr.4" }
%"class.Ipopt::BacktrackingLSAcceptor.base" = type { %"class.Ipopt::AlgorithmStrategyObject.base" }
%"class.Ipopt::AlgorithmStrategyObject.base" = type <{ %"class.Ipopt::ReferencedObject.base", [4 x i8], %"class.Ipopt::SmartPtr", %"class.Ipopt::SmartPtr.0", %"class.Ipopt::SmartPtr.1", %"class.Ipopt::SmartPtr.2", i8 }>
%"class.Ipopt::ReferencedObject.base" = type <{ ptr, i32 }>
%"class.Ipopt::SmartPtr" = type { ptr }
%"class.Ipopt::SmartPtr.0" = type { ptr }
%"class.Ipopt::SmartPtr.1" = type { ptr }
%"class.Ipopt::SmartPtr.2" = type { ptr }
%"class.Ipopt::SmartPtr.3" = type { ptr }
%"class.Ipopt::SmartPtr.4" = type { ptr }
%"class.std::__cxx11::basic_string" = type { %"struct.std::__cxx11::basic_string<char>::_Alloc_hider", i64, %union.anon }
%"struct.std::__cxx11::basic_string<char>::_Alloc_hider" = type { ptr }
%union.anon = type { i64, [8 x i8] }
%"class.std::allocator.12" = type { i8 }
%"class.Ipopt::SmartPtr.28" = type { ptr }
%"class.Ipopt::SmartPtr.29" = type { ptr }
%"class.Ipopt::AlgorithmStrategyObject" = type <{ %"class.Ipopt::ReferencedObject.base", [4 x i8], %"class.Ipopt::SmartPtr", %"class.Ipopt::SmartPtr.0", %"class.Ipopt::SmartPtr.1", %"class.Ipopt::SmartPtr.2", i8, [7 x i8] }>
%"class.Ipopt::IpoptData" = type { %"class.Ipopt::ReferencedObject.base", %"class.Ipopt::SmartPtr.28", %"class.Ipopt::SmartPtr.28", %"class.Ipopt::SmartPtr.29", %"class.Ipopt::SmartPtr.28", i8, %"class.Ipopt::SmartPtr.28", i8, i32, double, i8, double, i8, i8, i8, double, i8, i8, double, double, i8, double, i32, i8, %"class.std::__cxx11::basic_string", double, i32, %"class.Ipopt::SmartPtr.30", %"class.Ipopt::TimingStatistics", %"class.Ipopt::SmartPtr.31", double, double, double, double }
%"class.Ipopt::SmartPtr.30" = type { ptr }
%"class.Ipopt::TimingStatistics" = type { %"class.Ipopt::ReferencedObject.base", [4 x i8], %"class.Ipopt::TimedTask", %"class.Ipopt::TimedTask", %"class.Ipopt::TimedTask", %"class.Ipopt::TimedTask", %"class.Ipopt::TimedTask", %"class.Ipopt::TimedTask", %"class.Ipopt::TimedTask", %"class.Ipopt::TimedTask", %"class.Ipopt::TimedTask", %"class.Ipopt::TimedTask", %"class.Ipopt::TimedTask", %"class.Ipopt::TimedTask", %"class.Ipopt::TimedTask", %"class.Ipopt::TimedTask", %"class.Ipopt::TimedTask", %"class.Ipopt::TimedTask", %"class.Ipopt::TimedTask", %"class.Ipopt::TimedTask", %"class.Ipopt::TimedTask", %"class.Ipopt::TimedTask", %"class.Ipopt::TimedTask", %"class.Ipopt::TimedTask", %"class.Ipopt::TimedTask", %"class.Ipopt::TimedTask", %"class.Ipopt::TimedTask", %"class.Ipopt::TimedTask", %"class.Ipopt::TimedTask", %"class.Ipopt::TimedTask", %"class.Ipopt::TimedTask", %"class.Ipopt::TimedTask", %"class.Ipopt::TimedTask", %"class.Ipopt::TimedTask", %"class.Ipopt::TimedTask", %"class.Ipopt::TimedTask", %"class.Ipopt::TimedTask" }
%"class.Ipopt::TimedTask" = type <{ double, double, double, double, double, double, i8, i8, i8, [5 x i8] }>
%"class.Ipopt::SmartPtr.31" = type { ptr }
%"class.Ipopt::ReferencedObject" = type <{ ptr, i32, [4 x i8] }>

@.str.31 = private unnamed_addr constant [10 x i8] c" nu=%8.2e\00", align 1
@.str.42 = private unnamed_addr constant [50 x i8] c"basic_string: construction from null is not valid\00", align 1

; Function Attrs: mustprogress nounwind uwtable
define linkonce_odr noundef i32 @_ZNK5Ipopt16ReferencedObject14ReferenceCountEv(ptr noundef nonnull align 8 dereferenceable(12) %0) #5 comdat align 2 {
  %2 = alloca ptr, align 8
  store ptr %0, ptr %2, align 8
  %3 = load ptr, ptr %2, align 8
  %4 = getelementptr inbounds %"class.Ipopt::ReferencedObject", ptr %3, i32 0, i32 1
  %5 = load i32, ptr %4, align 8
  ret i32 %5
}

; Function Attrs: mustprogress nounwind uwtable
define linkonce_odr void @_ZNK5Ipopt16ReferencedObject10ReleaseRefEPKNS_10ReferencerE(ptr noundef nonnull align 8 dereferenceable(12) %0, ptr noundef %1) #5 comdat align 2 {
  %3 = alloca ptr, align 8
  %4 = alloca ptr, align 8
  store ptr %0, ptr %3, align 8
  store ptr %1, ptr %4, align 8
  %5 = load ptr, ptr %3, align 8
  %6 = getelementptr inbounds %"class.Ipopt::ReferencedObject", ptr %5, i32 0, i32 1
  %7 = load i32, ptr %6, align 8
  %8 = add nsw i32 %7, -1
  store i32 %8, ptr %6, align 8
  ret void
}

; Function Attrs: mustprogress nounwind uwtable
define linkonce_odr void @_ZN5Ipopt8SmartPtrIKNS_6VectorEE15ReleasePointer_Ev(ptr noundef nonnull align 8 dereferenceable(8) %0) #5 comdat align 2 {
  %2 = alloca ptr, align 8
  store ptr %0, ptr %2, align 8
  %3 = load ptr, ptr %2, align 8
  %4 = getelementptr inbounds %"class.Ipopt::SmartPtr.3", ptr %3, i32 0, i32 0
  %5 = load ptr, ptr %4, align 8
  %6 = icmp ne ptr %5, null
  br i1 %6, label %7, label %24

7:                                                ; preds = %1
  %8 = getelementptr inbounds %"class.Ipopt::SmartPtr.3", ptr %3, i32 0, i32 0
  %9 = load ptr, ptr %8, align 8
  call void @_ZNK5Ipopt16ReferencedObject10ReleaseRefEPKNS_10ReferencerE(ptr noundef nonnull align 8 dereferenceable(12) %9, ptr noundef %3)
  %10 = getelementptr inbounds %"class.Ipopt::SmartPtr.3", ptr %3, i32 0, i32 0
  %11 = load ptr, ptr %10, align 8
  %12 = call noundef i32 @_ZNK5Ipopt16ReferencedObject14ReferenceCountEv(ptr noundef nonnull align 8 dereferenceable(12) %11)
  %13 = icmp eq i32 %12, 0
  br i1 %13, label %14, label %23

14:                                               ; preds = %7
  %15 = getelementptr inbounds %"class.Ipopt::SmartPtr.3", ptr %3, i32 0, i32 0
  %16 = load ptr, ptr %15, align 8
  %17 = icmp eq ptr %16, null
  br i1 %17, label %22, label %18

18:                                               ; preds = %14
  %19 = load ptr, ptr %16, align 8
  %20 = getelementptr inbounds ptr, ptr %19, i64 1
  %21 = load ptr, ptr %20, align 8
  call void %21(ptr noundef nonnull align 8 dereferenceable(205) %16) #3
  br label %22

22:                                               ; preds = %18, %14
  br label %23

23:                                               ; preds = %22, %7
  br label %24

24:                                               ; preds = %23, %1
  ret void
}

; Function Attrs: mustprogress nounwind uwtable
define linkonce_odr void @_ZNK5Ipopt16ReferencedObject6AddRefEPKNS_10ReferencerE(ptr noundef nonnull align 8 dereferenceable(12) %0, ptr noundef %1) #5 comdat align 2 {
  %3 = alloca ptr, align 8
  %4 = alloca ptr, align 8
  store ptr %0, ptr %3, align 8
  store ptr %1, ptr %4, align 8
  %5 = load ptr, ptr %3, align 8
  %6 = getelementptr inbounds %"class.Ipopt::ReferencedObject", ptr %5, i32 0, i32 1
  %7 = load i32, ptr %6, align 8
  %8 = add nsw i32 %7, 1
  store i32 %8, ptr %6, align 8
  ret void
}

; Function Attrs: mustprogress nounwind uwtable
define linkonce_odr noundef i64 @_ZNSt11char_traitsIcE6lengthEPKc(ptr noundef %0) #5 comdat align 2 {
  %2 = alloca ptr, align 8
  store ptr %0, ptr %2, align 8
  %3 = load ptr, ptr %2, align 8
  %4 = call i64 @strlen(ptr noundef %3) #3
  ret i64 %4
}

; Function Attrs: mustprogress nounwind uwtable
define linkonce_odr void @_ZNSt7__cxx1112basic_stringIcSt11char_traitsIcESaIcEE12_Alloc_hiderD2Ev(ptr noundef nonnull align 8 dereferenceable(8) %0) unnamed_addr #5 comdat align 2 {
  %2 = alloca ptr, align 8
  store ptr %0, ptr %2, align 8
  %3 = load ptr, ptr %2, align 8
  call void @_ZNSaIcED2Ev(ptr noundef nonnull align 1 dereferenceable(1) %3) #3
  ret void
}

; Function Attrs: mustprogress nounwind uwtable
define linkonce_odr noundef nonnull align 8 dereferenceable(2232) ptr @_ZNK5Ipopt8SmartPtrINS_9IpoptDataEEdeEv(ptr noundef nonnull align 8 dereferenceable(8) %0) #5 comdat align 2 {
  %2 = alloca ptr, align 8
  store ptr %0, ptr %2, align 8
  %3 = load ptr, ptr %2, align 8
  %4 = getelementptr inbounds %"class.Ipopt::SmartPtr.1", ptr %3, i32 0, i32 0
  %5 = load ptr, ptr %4, align 8
  ret ptr %5
}

; Function Attrs: mustprogress uwtable
define linkonce_odr noundef nonnull align 8 dereferenceable(8) ptr @_ZN5Ipopt8SmartPtrIKNS_6VectorEE14SetFromRawPtr_EPS2_(ptr noundef nonnull align 8 dereferenceable(8) %0, ptr noundef %1) #4 comdat align 2 {
  %3 = alloca ptr, align 8
  %4 = alloca ptr, align 8
  store ptr %0, ptr %3, align 8
  store ptr %1, ptr %4, align 8
  %5 = load ptr, ptr %3, align 8
  %6 = load ptr, ptr %4, align 8
  %7 = icmp ne ptr %6, null
  br i1 %7, label %8, label %10

8:                                                ; preds = %2
  %9 = load ptr, ptr %4, align 8
  call void @_ZNK5Ipopt16ReferencedObject6AddRefEPKNS_10ReferencerE(ptr noundef nonnull align 8 dereferenceable(12) %9, ptr noundef %5)
  br label %10

10:                                               ; preds = %8, %2
  call void @_ZN5Ipopt8SmartPtrIKNS_6VectorEE15ReleasePointer_Ev(ptr noundef nonnull align 8 dereferenceable(8) %5)
  %11 = load ptr, ptr %4, align 8
  %12 = getelementptr inbounds %"class.Ipopt::SmartPtr.3", ptr %5, i32 0, i32 0
  store ptr %11, ptr %12, align 8
  ret ptr %5
}

; Function Attrs: mustprogress uwtable
define linkonce_odr void @_ZN5Ipopt9IpoptData18Append_info_stringERKNSt7__cxx1112basic_stringIcSt11char_traitsIcESaIcEEE(ptr noundef nonnull align 8 dereferenceable(2232) %0, ptr noundef nonnull align 8 dereferenceable(32) %1) #4 comdat align 2 {
  %3 = alloca ptr, align 8
  %4 = alloca ptr, align 8
  store ptr %0, ptr %3, align 8
  store ptr %1, ptr %4, align 8
  %5 = load ptr, ptr %3, align 8
  %6 = load ptr, ptr %4, align 8
  %7 = getelementptr inbounds %"class.Ipopt::IpoptData", ptr %5, i32 0, i32 24
  %8 = call noundef nonnull align 8 dereferenceable(32) ptr @_ZNSt7__cxx1112basic_stringIcSt11char_traitsIcESaIcEEpLERKS4_(ptr noundef nonnull align 8 dereferenceable(32) %7, ptr noundef nonnull align 8 dereferenceable(32) %6)
  ret void
}

; Function Attrs: mustprogress uwtable
define linkonce_odr void @_ZNSt7__cxx1112basic_stringIcSt11char_traitsIcESaIcEEC2IS3_EEPKcRKS3_(ptr noundef nonnull align 8 dereferenceable(32) %0, ptr noundef %1, ptr noundef nonnull align 1 dereferenceable(1) %2) unnamed_addr #4 comdat align 2 personality ptr @__gxx_personality_v0 {
  %4 = alloca ptr, align 8
  %5 = alloca ptr, align 8
  %6 = alloca ptr, align 8
  %7 = alloca ptr, align 8
  %8 = alloca i32, align 4
  %9 = alloca ptr, align 8
  store ptr %0, ptr %4, align 8
  store ptr %1, ptr %5, align 8
  store ptr %2, ptr %6, align 8
  %10 = load ptr, ptr %4, align 8
  %11 = getelementptr inbounds %"class.std::__cxx11::basic_string", ptr %10, i32 0, i32 0
  %12 = call noundef ptr @_ZNSt7__cxx1112basic_stringIcSt11char_traitsIcESaIcEE13_M_local_dataEv(ptr noundef nonnull align 8 dereferenceable(32) %10)
  %13 = load ptr, ptr %6, align 8
  call void @_ZNSt7__cxx1112basic_stringIcSt11char_traitsIcESaIcEE12_Alloc_hiderC1EPcRKS3_(ptr noundef nonnull align 8 dereferenceable(8) %11, ptr noundef %12, ptr noundef nonnull align 1 dereferenceable(1) %13)
  %14 = load ptr, ptr %5, align 8
  %15 = icmp eq ptr %14, null
  br i1 %15, label %16, label %22

16:                                               ; preds = %3
  invoke void @_ZSt19__throw_logic_errorPKc(ptr noundef @.str.42) #15
          to label %17 unwind label %18

17:                                               ; preds = %16
  unreachable

18:                                               ; preds = %26, %22, %16
  %19 = landingpad { ptr, i32 }
          cleanup
  %20 = extractvalue { ptr, i32 } %19, 0
  store ptr %20, ptr %7, align 8
  %21 = extractvalue { ptr, i32 } %19, 1
  store i32 %21, ptr %8, align 4
  call void @_ZNSt7__cxx1112basic_stringIcSt11char_traitsIcESaIcEE12_Alloc_hiderD2Ev(ptr noundef nonnull align 8 dereferenceable(8) %11) #3
  br label %31

22:                                               ; preds = %3
  %23 = load ptr, ptr %5, align 8
  %24 = load ptr, ptr %5, align 8
  %25 = invoke noundef i64 @_ZNSt11char_traitsIcE6lengthEPKc(ptr noundef %24)
          to label %26 unwind label %18

26:                                               ; preds = %22
  %27 = getelementptr inbounds i8, ptr %23, i64 %25
  store ptr %27, ptr %9, align 8
  %28 = load ptr, ptr %5, align 8
  %29 = load ptr, ptr %9, align 8
  invoke void @_ZNSt7__cxx1112basic_stringIcSt11char_traitsIcESaIcEE12_M_constructIPKcEEvT_S8_St20forward_iterator_tag(ptr noundef nonnull align 8 dereferenceable(32) %10, ptr noundef %28, ptr noundef %29)
          to label %30 unwind label %18

30:                                               ; preds = %26
  ret void

31:                                               ; preds = %18
  %32 = load ptr, ptr %7, align 8
  %33 = load i32, ptr %8, align 4
  %34 = insertvalue { ptr, i32 } poison, ptr %32, 0
  %35 = insertvalue { ptr, i32 } %34, i32 %33, 1
  resume { ptr, i32 } %35
}

; Function Attrs: mustprogress uwtable
define linkonce_odr noundef nonnull align 8 dereferenceable(2232) ptr @_ZNK5Ipopt23AlgorithmStrategyObject6IpDataEv(ptr noundef nonnull align 8 dereferenceable(49) %0) #4 comdat align 2 {
  %2 = alloca ptr, align 8
  store ptr %0, ptr %2, align 8
  %3 = load ptr, ptr %2, align 8
  %4 = getelementptr inbounds %"class.Ipopt::AlgorithmStrategyObject", ptr %3, i32 0, i32 4
  %5 = call noundef nonnull align 8 dereferenceable(2232) ptr @_ZNK5Ipopt8SmartPtrINS_9IpoptDataEEdeEv(ptr noundef nonnull align 8 dereferenceable(8) %4)
  ret ptr %5
}

; Function Attrs: mustprogress uwtable
define linkonce_odr noundef nonnull align 8 dereferenceable(8) ptr @_ZN5Ipopt8SmartPtrIKNS_6VectorEEaSEPS2_(ptr noundef nonnull align 8 dereferenceable(8) %0, ptr noundef %1) #4 comdat align 2 {
  %3 = alloca ptr, align 8
  %4 = alloca ptr, align 8
  store ptr %0, ptr %3, align 8
  store ptr %1, ptr %4, align 8
  %5 = load ptr, ptr %3, align 8
  %6 = load ptr, ptr %4, align 8
  %7 = call noundef nonnull align 8 dereferenceable(8) ptr @_ZN5Ipopt8SmartPtrIKNS_6VectorEE14SetFromRawPtr_EPS2_(ptr noundef nonnull align 8 dereferenceable(8) %5, ptr noundef %6)
  ret ptr %7
}

; Function Attrs: mustprogress uwtable
define noundef signext i8 @_ZN5Ipopt17PenaltyLSAcceptor22UpdateForNextIterationEd(ptr noundef nonnull align 8 dereferenceable(224) %0, double noundef %1) unnamed_addr #4 align 2 personality ptr @__gxx_personality_v0 {
  %3 = alloca ptr, align 8
  %4 = alloca double, align 8
  %5 = alloca i8, align 1
  %6 = alloca [40 x i8], align 16
  %7 = alloca %"class.std::__cxx11::basic_string", align 8
  %8 = alloca %"class.std::allocator.12", align 1
  %9 = alloca ptr, align 8
  %10 = alloca i32, align 4
  store ptr %0, ptr %3, align 8
  store double %1, ptr %4, align 8
  %11 = load ptr, ptr %3, align 8
  %12 = getelementptr inbounds %"class.Ipopt::PenaltyLSAcceptor", ptr %11, i32 0, i32 12
  %13 = call noundef nonnull align 8 dereferenceable(8) ptr @_ZN5Ipopt8SmartPtrIKNS_6VectorEEaSEPS2_(ptr noundef nonnull align 8 dereferenceable(8) %12, ptr noundef null)
  %14 = getelementptr inbounds %"class.Ipopt::PenaltyLSAcceptor", ptr %11, i32 0, i32 13
  %15 = call noundef nonnull align 8 dereferenceable(8) ptr @_ZN5Ipopt8SmartPtrIKNS_6VectorEEaSEPS2_(ptr noundef nonnull align 8 dereferenceable(8) %14, ptr noundef null)
  %16 = getelementptr inbounds %"class.Ipopt::PenaltyLSAcceptor", ptr %11, i32 0, i32 19
  %17 = load double, ptr %16, align 8
  %18 = getelementptr inbounds %"class.Ipopt::PenaltyLSAcceptor", ptr %11, i32 0, i32 18
  %19 = load double, ptr %18, align 8
  %20 = fcmp une double %17, %19
  br i1 %20, label %21, label %39

21:                                               ; preds = %2
  store i8 110, ptr %5, align 1
  %22 = getelementptr inbounds [40 x i8], ptr %6, i64 0, i64 0
  %23 = getelementptr inbounds %"class.Ipopt::PenaltyLSAcceptor", ptr %11, i32 0, i32 18
  %24 = load double, ptr %23, align 8
  %25 = call i32 (ptr, ptr, ...) @sprintf(ptr noundef %22, ptr noundef @.str.31, double noundef %24) #3
  %26 = call noundef nonnull align 8 dereferenceable(2232) ptr @_ZNK5Ipopt23AlgorithmStrategyObject6IpDataEv(ptr noundef nonnull align 8 dereferenceable(49) %11)
  %27 = getelementptr inbounds [40 x i8], ptr %6, i64 0, i64 0
  call void @_ZNSaIcEC1Ev(ptr noundef nonnull align 1 dereferenceable(1) %8) #3
  invoke void @_ZNSt7__cxx1112basic_stringIcSt11char_traitsIcESaIcEEC2IS3_EEPKcRKS3_(ptr noundef nonnull align 8 dereferenceable(32) %7, ptr noundef %27, ptr noundef nonnull align 1 dereferenceable(1) %8)
          to label %28 unwind label %30

28:                                               ; preds = %21
  invoke void @_ZN5Ipopt9IpoptData18Append_info_stringERKNSt7__cxx1112basic_stringIcSt11char_traitsIcESaIcEEE(ptr noundef nonnull align 8 dereferenceable(2232) %26, ptr noundef nonnull align 8 dereferenceable(32) %7)
          to label %29 unwind label %34

29:                                               ; preds = %28
  call void @_ZNSt7__cxx1112basic_stringIcSt11char_traitsIcESaIcEED1Ev(ptr noundef nonnull align 8 dereferenceable(32) %7) #3
  call void @_ZNSaIcED1Ev(ptr noundef nonnull align 1 dereferenceable(1) %8) #3
  br label %40

30:                                               ; preds = %21
  %31 = landingpad { ptr, i32 }
          cleanup
  %32 = extractvalue { ptr, i32 } %31, 0
  store ptr %32, ptr %9, align 8
  %33 = extractvalue { ptr, i32 } %31, 1
  store i32 %33, ptr %10, align 4
  br label %38

34:                                               ; preds = %28
  %35 = landingpad { ptr, i32 }
          cleanup
  %36 = extractvalue { ptr, i32 } %35, 0
  store ptr %36, ptr %9, align 8
  %37 = extractvalue { ptr, i32 } %35, 1
  store i32 %37, ptr %10, align 4
  call void @_ZNSt7__cxx1112basic_stringIcSt11char_traitsIcESaIcEED1Ev(ptr noundef nonnull align 8 dereferenceable(32) %7) #3
  br label %38

38:                                               ; preds = %34, %30
  call void @_ZNSaIcED1Ev(ptr noundef nonnull align 1 dereferenceable(1) %8) #3
  br label %42

39:                                               ; preds = %2
  store i8 107, ptr %5, align 1
  br label %40

40:                                               ; preds = %39, %29
  %41 = load i8, ptr %5, align 1
  ret i8 %41

42:                                               ; preds = %38
  %43 = load ptr, ptr %9, align 8
  %44 = load i32, ptr %10, align 4
  %45 = insertvalue { ptr, i32 } poison, ptr %43, 0
  %46 = insertvalue { ptr, i32 } %45, i32 %44, 1
  resume { ptr, i32 } %46
}