; Function Attrs: mustprogress uwtable
define noundef signext i8 @_ZN5Ipopt17PenaltyLSAcceptor22UpdateForNextIterationEd(ptr nocapture noundef nonnull align 8 dereferenceable(224) %0, double %1) unnamed_addr #3 align 2 personality ptr @__gxx_personality_v0 {
  %3 = alloca [40 x i8], align 16
  %4 = alloca %"class.std::__cxx11::basic_string", align 8
  %5 = alloca %"class.std::allocator.12", align 1
  %6 = getelementptr inbounds i8, ptr %0, i64 144
  %7 = load ptr, ptr %6, align 8
  %.not.i.i.i = icmp eq ptr %7, null
  br i1 %.not.i.i.i, label %_ZN5Ipopt8SmartPtrIKNS_6VectorEEaSEPS2_.exit, label %8

8:                                                ; preds = %2
  %9 = getelementptr inbounds i8, ptr %7, i64 8
  %10 = load i32, ptr %9, align 8
  %11 = add nsw i32 %10, -1
  store i32 %11, ptr %9, align 8
  %12 = load ptr, ptr %6, align 8
  %13 = getelementptr inbounds i8, ptr %12, i64 8
  %14 = load i32, ptr %13, align 8
  %15 = icmp eq i32 %14, 0
  br i1 %15, label %16, label %_ZN5Ipopt8SmartPtrIKNS_6VectorEEaSEPS2_.exit

16:                                               ; preds = %8
  %17 = load ptr, ptr %12, align 8
  %18 = getelementptr inbounds i8, ptr %17, i64 8
  %19 = load ptr, ptr %18, align 8
  tail call void %19(ptr noundef nonnull align 8 dereferenceable(205) %12) #22
  br label %_ZN5Ipopt8SmartPtrIKNS_6VectorEEaSEPS2_.exit

_ZN5Ipopt8SmartPtrIKNS_6VectorEEaSEPS2_.exit:     ; preds = %2, %8, %16
  store ptr null, ptr %6, align 8
  %20 = getelementptr inbounds i8, ptr %0, i64 152
  %21 = load ptr, ptr %20, align 8
  %.not.i.i.i7 = icmp eq ptr %21, null
  br i1 %.not.i.i.i7, label %_ZN5Ipopt8SmartPtrIKNS_6VectorEEaSEPS2_.exit8, label %22

22:                                               ; preds = %_ZN5Ipopt8SmartPtrIKNS_6VectorEEaSEPS2_.exit
  %23 = getelementptr inbounds i8, ptr %21, i64 8
  %24 = load i32, ptr %23, align 8
  %25 = add nsw i32 %24, -1
  store i32 %25, ptr %23, align 8
  %26 = load ptr, ptr %20, align 8
  %27 = getelementptr inbounds i8, ptr %26, i64 8
  %28 = load i32, ptr %27, align 8
  %29 = icmp eq i32 %28, 0
  br i1 %29, label %30, label %_ZN5Ipopt8SmartPtrIKNS_6VectorEEaSEPS2_.exit8

30:                                               ; preds = %22
  %31 = load ptr, ptr %26, align 8
  %32 = getelementptr inbounds i8, ptr %31, i64 8
  %33 = load ptr, ptr %32, align 8
  tail call void %33(ptr noundef nonnull align 8 dereferenceable(205) %26) #22
  br label %_ZN5Ipopt8SmartPtrIKNS_6VectorEEaSEPS2_.exit8

_ZN5Ipopt8SmartPtrIKNS_6VectorEEaSEPS2_.exit8:    ; preds = %_ZN5Ipopt8SmartPtrIKNS_6VectorEEaSEPS2_.exit, %22, %30
  store ptr null, ptr %20, align 8
  %34 = getelementptr inbounds i8, ptr %0, i64 200
  %35 = load double, ptr %34, align 8
  %36 = getelementptr inbounds i8, ptr %0, i64 192
  %37 = load double, ptr %36, align 8
  %38 = fcmp une double %35, %37
  br i1 %38, label %39, label %54

39:                                               ; preds = %_ZN5Ipopt8SmartPtrIKNS_6VectorEEaSEPS2_.exit8
  %40 = call i32 (ptr, ptr, ...) @sprintf(ptr noundef nonnull dereferenceable(1) %3, ptr noundef nonnull dereferenceable(1) @.str.31, double noundef %37) #22
  %41 = getelementptr inbounds i8, ptr %0, i64 32
  %42 = load ptr, ptr %41, align 8
  call void @_ZNSaIcEC1Ev(ptr noundef nonnull align 1 dereferenceable(1) %5) #22
  %43 = invoke noundef ptr @_ZNSt7__cxx1112basic_stringIcSt11char_traitsIcESaIcEE13_M_local_dataEv(ptr noundef nonnull align 8 dereferenceable(32) %4)
          to label %.noexc unwind label %50

.noexc:                                           ; preds = %39
  invoke void @_ZNSt7__cxx1112basic_stringIcSt11char_traitsIcESaIcEE12_Alloc_hiderC1EPcRKS3_(ptr noundef nonnull align 8 dereferenceable(8) %4, ptr noundef %43, ptr noundef nonnull align 1 dereferenceable(1) %5)
          to label %.noexc9 unwind label %50

.noexc9:                                          ; preds = %.noexc
  %44 = call noundef i64 @strlen(ptr noundef nonnull dereferenceable(1) %3) #22
  %45 = getelementptr inbounds i8, ptr %3, i64 %44
  invoke void @_ZNSt7__cxx1112basic_stringIcSt11char_traitsIcESaIcEE12_M_constructIPKcEEvT_S8_St20forward_iterator_tag(ptr noundef nonnull align 8 dereferenceable(32) %4, ptr noundef nonnull %3, ptr noundef nonnull %45)
          to label %_ZNSt7__cxx1112basic_stringIcSt11char_traitsIcESaIcEEC2IS3_EEPKcRKS3_.exit unwind label %46

46:                                               ; preds = %.noexc9
  %47 = landingpad { ptr, i32 }
          cleanup
  call void @_ZNSaIcED2Ev(ptr noundef nonnull align 1 dereferenceable(1) %4) #22
  br label %.body

_ZNSt7__cxx1112basic_stringIcSt11char_traitsIcESaIcEEC2IS3_EEPKcRKS3_.exit: ; preds = %.noexc9
  %48 = getelementptr inbounds i8, ptr %42, i64 160
  %49 = invoke noundef nonnull align 8 dereferenceable(32) ptr @_ZNSt7__cxx1112basic_stringIcSt11char_traitsIcESaIcEEpLERKS4_(ptr noundef nonnull align 8 dereferenceable(32) %48, ptr noundef nonnull align 8 dereferenceable(32) %4)
          to label %_ZN5Ipopt9IpoptData18Append_info_stringERKNSt7__cxx1112basic_stringIcSt11char_traitsIcESaIcEEE.exit unwind label %52

_ZN5Ipopt9IpoptData18Append_info_stringERKNSt7__cxx1112basic_stringIcSt11char_traitsIcESaIcEEE.exit: ; preds = %_ZNSt7__cxx1112basic_stringIcSt11char_traitsIcESaIcEEC2IS3_EEPKcRKS3_.exit
  call void @_ZNSt7__cxx1112basic_stringIcSt11char_traitsIcESaIcEED1Ev(ptr noundef nonnull align 8 dereferenceable(32) %4) #22
  call void @_ZNSaIcED1Ev(ptr noundef nonnull align 1 dereferenceable(1) %5) #22
  br label %54

50:                                               ; preds = %.noexc, %39
  %51 = landingpad { ptr, i32 }
          cleanup
  br label %.body

52:                                               ; preds = %_ZNSt7__cxx1112basic_stringIcSt11char_traitsIcESaIcEEC2IS3_EEPKcRKS3_.exit
  %53 = landingpad { ptr, i32 }
          cleanup
  call void @_ZNSt7__cxx1112basic_stringIcSt11char_traitsIcESaIcEED1Ev(ptr noundef nonnull align 8 dereferenceable(32) %4) #22
  br label %.body

.body:                                            ; preds = %50, %46, %52
  %.pn = phi { ptr, i32 } [ %53, %52 ], [ %51, %50 ], [ %47, %46 ]
  call void @_ZNSaIcED1Ev(ptr noundef nonnull align 1 dereferenceable(1) %5) #22
  resume { ptr, i32 } %.pn

54:                                               ; preds = %_ZN5Ipopt8SmartPtrIKNS_6VectorEEaSEPS2_.exit8, %_ZN5Ipopt9IpoptData18Append_info_stringERKNSt7__cxx1112basic_stringIcSt11char_traitsIcESaIcEEE.exit
  %.04 = phi i8 [ 110, %_ZN5Ipopt9IpoptData18Append_info_stringERKNSt7__cxx1112basic_stringIcSt11char_traitsIcESaIcEEE.exit ], [ 107, %_ZN5Ipopt8SmartPtrIKNS_6VectorEEaSEPS2_.exit8 ]
  ret i8 %.04
}